target datalayout = "e-m:e-p270:32:32-p271:32:32-p272:64:64-i64:64-i128:128-f80:128-n8:16:32:64-S128"
target triple = "x86_64-pc-linux-gnu"

%struct.strbuf = type { i64, i64, ptr }
%struct.tr2_dst = type { i32, i32, i8 }

@.str.6 = private unnamed_addr constant [34 x i8] c"unable to write trace to '%s': %s\00", align 1
@tr2_dst_want_warning.tr2env_dst_debug = internal global i32 -1, align 4

; Function Attrs: inlinehint nounwind uwtable
define internal i64 @strbuf_avail(ptr noundef %0) #5 {
  %2 = alloca ptr, align 8
  store ptr %0, ptr %2, align 8, !tbaa !24
  %3 = load ptr, ptr %2, align 8, !tbaa !24
  %4 = getelementptr inbounds nuw %struct.strbuf, ptr %3, i32 0, i32 0
  %5 = load i64, ptr %4, align 8, !tbaa !29
  %6 = icmp ne i64 %5, 0
  br i1 %6, label %7, label %16

7:                                                ; preds = %1
  %8 = load ptr, ptr %2, align 8, !tbaa !24
  %9 = getelementptr inbounds nuw %struct.strbuf, ptr %8, i32 0, i32 0
  %10 = load i64, ptr %9, align 8, !tbaa !29
  %11 = load ptr, ptr %2, align 8, !tbaa !24
  %12 = getelementptr inbounds nuw %struct.strbuf, ptr %11, i32 0, i32 1
  %13 = load i64, ptr %12, align 8, !tbaa !19
  %14 = sub i64 %10, %13
  %15 = sub i64 %14, 1
  br label %17

16:                                               ; preds = %1
  br label %17

17:                                               ; preds = %16, %7
  %18 = phi i64 [ %15, %7 ], [ 0, %16 ]
  ret i64 %18
}

; Function Attrs: inlinehint nounwind uwtable
define internal void @strbuf_addch(ptr noundef %0, i32 noundef %1) #5 {
  %3 = alloca ptr, align 8
  %4 = alloca i32, align 4
  store ptr %0, ptr %3, align 8, !tbaa !24
  store i32 %1, ptr %4, align 4, !tbaa !21
  %5 = load ptr, ptr %3, align 8, !tbaa !24
  %6 = call i64 @strbuf_avail(ptr noundef %5)
  %7 = icmp ne i64 %6, 0
  br i1 %7, label %10, label %8

8:                                                ; preds = %2
  %9 = load ptr, ptr %3, align 8, !tbaa !24
  call void @strbuf_grow(ptr noundef %9, i64 noundef 1)
  br label %10

10:                                               ; preds = %8, %2
  %11 = load i32, ptr %4, align 4, !tbaa !21
  %12 = trunc i32 %11 to i8
  %13 = load ptr, ptr %3, align 8, !tbaa !24
  %14 = getelementptr inbounds nuw %struct.strbuf, ptr %13, i32 0, i32 2
  %15 = load ptr, ptr %14, align 8, !tbaa !16
  %16 = load ptr, ptr %3, align 8, !tbaa !24
  %17 = getelementptr inbounds nuw %struct.strbuf, ptr %16, i32 0, i32 1
  %18 = load i64, ptr %17, align 8, !tbaa !19
  %19 = add i64 %18, 1
  store i64 %19, ptr %17, align 8, !tbaa !19
  %20 = getelementptr inbounds nuw i8, ptr %15, i64 %18
  store i8 %12, ptr %20, align 1, !tbaa !15
  %21 = load ptr, ptr %3, align 8, !tbaa !24
  %22 = getelementptr inbounds nuw %struct.strbuf, ptr %21, i32 0, i32 2
  %23 = load ptr, ptr %22, align 8, !tbaa !16
  %24 = load ptr, ptr %3, align 8, !tbaa !24
  %25 = getelementptr inbounds nuw %struct.strbuf, ptr %24, i32 0, i32 1
  %26 = load i64, ptr %25, align 8, !tbaa !19
  %27 = getelementptr inbounds nuw i8, ptr %23, i64 %26
  store i8 0, ptr %27, align 1, !tbaa !15
  ret void
}

; Function Attrs: inlinehint nounwind willreturn memory(read) uwtable
define available_externally i32 @atoi(ptr noundef nonnull %0) #4 {
  %2 = alloca ptr, align 8
  store ptr %0, ptr %2, align 8, !tbaa !13
  %3 = load ptr, ptr %2, align 8, !tbaa !13
  %4 = call i64 @strtol(ptr noundef %3, ptr noundef null, i32 noundef 10) #10
  %5 = trunc i64 %4 to i32
  ret i32 %5
}

; Function Attrs: inlinehint nounwind uwtable
define internal void @strbuf_complete(ptr noundef %0, i8 noundef signext %1) #5 {
  %3 = alloca ptr, align 8
  %4 = alloca i8, align 1
  store ptr %0, ptr %3, align 8, !tbaa !24
  store i8 %1, ptr %4, align 1, !tbaa !15
  %5 = load ptr, ptr %3, align 8, !tbaa !24
  %6 = getelementptr inbounds nuw %struct.strbuf, ptr %5, i32 0, i32 1
  %7 = load i64, ptr %6, align 8, !tbaa !19
  %8 = icmp ne i64 %7, 0
  br i1 %8, label %9, label %27

9:                                                ; preds = %2
  %10 = load ptr, ptr %3, align 8, !tbaa !24
  %11 = getelementptr inbounds nuw %struct.strbuf, ptr %10, i32 0, i32 2
  %12 = load ptr, ptr %11, align 8, !tbaa !16
  %13 = load ptr, ptr %3, align 8, !tbaa !24
  %14 = getelementptr inbounds nuw %struct.strbuf, ptr %13, i32 0, i32 1
  %15 = load i64, ptr %14, align 8, !tbaa !19
  %16 = sub i64 %15, 1
  %17 = getelementptr inbounds nuw i8, ptr %12, i64 %16
  %18 = load i8, ptr %17, align 1, !tbaa !15
  %19 = sext i8 %18 to i32
  %20 = load i8, ptr %4, align 1, !tbaa !15
  %21 = sext i8 %20 to i32
  %22 = icmp ne i32 %19, %21
  br i1 %22, label %23, label %27

23:                                               ; preds = %9
  %24 = load ptr, ptr %3, align 8, !tbaa !24
  %25 = load i8, ptr %4, align 1, !tbaa !15
  %26 = sext i8 %25 to i32
  call void @strbuf_addch(ptr noundef %24, i32 noundef %26)
  br label %27

27:                                               ; preds = %23, %9, %2
  ret void
}

; Function Attrs: nounwind uwtable
define internal i32 @tr2_dst_want_warning() #0 {
  %1 = alloca ptr, align 8
  %2 = load i32, ptr @tr2_dst_want_warning.tr2env_dst_debug, align 4, !tbaa !21
  %3 = icmp eq i32 %2, -1
  br i1 %3, label %4, label %19

4:                                                ; preds = %0
  call void @llvm.lifetime.start.p0(i64 8, ptr %1) #10
  %5 = call ptr @tr2_sysenv_get(i32 noundef 2)
  store ptr %5, ptr %1, align 8, !tbaa !13
  %6 = load ptr, ptr %1, align 8, !tbaa !13
  %7 = icmp ne ptr %6, null
  br i1 %7, label %8, label %12

8:                                                ; preds = %4
  %9 = load ptr, ptr %1, align 8, !tbaa !13
  %10 = load i8, ptr %9, align 1, !tbaa !15
  %11 = icmp ne i8 %10, 0
  br i1 %11, label %13, label %12

12:                                               ; preds = %8, %4
  store i32 0, ptr @tr2_dst_want_warning.tr2env_dst_debug, align 4, !tbaa !21
  br label %18

13:                                               ; preds = %8
  %14 = load ptr, ptr %1, align 8, !tbaa !13
  %15 = call i32 @atoi(ptr noundef %14) #11
  %16 = icmp sgt i32 %15, 0
  %17 = zext i1 %16 to i32
  store i32 %17, ptr @tr2_dst_want_warning.tr2env_dst_debug, align 4, !tbaa !21
  br label %18

18:                                               ; preds = %13, %12
  call void @llvm.lifetime.end.p0(i64 8, ptr %1) #10
  br label %19

19:                                               ; preds = %18, %0
  %20 = load i32, ptr @tr2_dst_want_warning.tr2env_dst_debug, align 4, !tbaa !21
  ret i32 %20
}

; Function Attrs: nounwind uwtable
define dso_local void @tr2_dst_trace_disable(ptr noundef %0) #0 {
  %2 = alloca ptr, align 8
  store ptr %0, ptr %2, align 8, !tbaa !4
  %3 = load ptr, ptr %2, align 8, !tbaa !4
  %4 = getelementptr inbounds nuw %struct.tr2_dst, ptr %3, i32 0, i32 2
  %5 = load i8, ptr %4, align 4
  %6 = lshr i8 %5, 1
  %7 = and i8 %6, 1
  %8 = zext i8 %7 to i32
  %9 = icmp ne i32 %8, 0
  br i1 %9, label %10, label %15

10:                                               ; preds = %1
  %11 = load ptr, ptr %2, align 8, !tbaa !4
  %12 = getelementptr inbounds nuw %struct.tr2_dst, ptr %11, i32 0, i32 1
  %13 = load i32, ptr %12, align 4, !tbaa !9
  %14 = call i32 @close(i32 noundef %13)
  br label %15

15:                                               ; preds = %10, %1
  %16 = load ptr, ptr %2, align 8, !tbaa !4
  %17 = getelementptr inbounds nuw %struct.tr2_dst, ptr %16, i32 0, i32 1
  store i32 0, ptr %17, align 4, !tbaa !9
  %18 = load ptr, ptr %2, align 8, !tbaa !4
  %19 = getelementptr inbounds nuw %struct.tr2_dst, ptr %18, i32 0, i32 2
  %20 = load i8, ptr %19, align 4
  %21 = and i8 %20, -2
  %22 = or i8 %21, 1
  store i8 %22, ptr %19, align 4
  %23 = load ptr, ptr %2, align 8, !tbaa !4
  %24 = getelementptr inbounds nuw %struct.tr2_dst, ptr %23, i32 0, i32 2
  %25 = load i8, ptr %24, align 4
  %26 = and i8 %25, -3
  %27 = or i8 %26, 0
  store i8 %27, ptr %24, align 4
  ret void
}

; Function Attrs: inlinehint nounwind uwtable
define internal void @strbuf_complete_line(ptr noundef %0) #5 {
  %2 = alloca ptr, align 8
  store ptr %0, ptr %2, align 8, !tbaa !24
  %3 = load ptr, ptr %2, align 8, !tbaa !24
  call void @strbuf_complete(ptr noundef %3, i8 noundef signext 10)
  ret void
}

; Function Attrs: nounwind uwtable
define dso_local void @tr2_dst_write_line(ptr noundef %0, ptr noundef %1) #0 {
  %3 = alloca ptr, align 8
  %4 = alloca ptr, align 8
  %5 = alloca i32, align 4
  %6 = alloca i64, align 8
  %7 = alloca i32, align 4
  store ptr %0, ptr %3, align 8, !tbaa !4
  store ptr %1, ptr %4, align 8, !tbaa !24
  call void @llvm.lifetime.start.p0(i64 4, ptr %5) #10
  %8 = load ptr, ptr %3, align 8, !tbaa !4
  %9 = call i32 @tr2_dst_get_trace_fd(ptr noundef %8)
  store i32 %9, ptr %5, align 4, !tbaa !21
  call void @llvm.lifetime.start.p0(i64 8, ptr %6) #10
  %10 = load ptr, ptr %4, align 8, !tbaa !24
  call void @strbuf_complete_line(ptr noundef %10)
  %11 = call i32 @sigchain_push(i32 noundef 13, ptr noundef inttoptr (i64 1 to ptr))
  %12 = load i32, ptr %5, align 4, !tbaa !21
  %13 = load ptr, ptr %4, align 8, !tbaa !24
  %14 = getelementptr inbounds nuw %struct.strbuf, ptr %13, i32 0, i32 2
  %15 = load ptr, ptr %14, align 8, !tbaa !16
  %16 = load ptr, ptr %4, align 8, !tbaa !24
  %17 = getelementptr inbounds nuw %struct.strbuf, ptr %16, i32 0, i32 1
  %18 = load i64, ptr %17, align 8, !tbaa !19
  %19 = call i64 @write(i32 noundef %12, ptr noundef %15, i64 noundef %18)
  store i64 %19, ptr %6, align 8, !tbaa !20
  %20 = call i32 @sigchain_pop(i32 noundef 13)
  %21 = load i64, ptr %6, align 8, !tbaa !20
  %22 = icmp sge i64 %21, 0
  br i1 %22, label %23, label %24

23:                                               ; preds = %2
  store i32 1, ptr %7, align 4
  br label %37

24:                                               ; preds = %2
  %25 = load ptr, ptr %3, align 8, !tbaa !4
  call void @tr2_dst_trace_disable(ptr noundef %25)
  %26 = call i32 @tr2_dst_want_warning()
  %27 = icmp ne i32 %26, 0
  br i1 %27, label %28, label %36

28:                                               ; preds = %24
  %29 = load ptr, ptr %3, align 8, !tbaa !4
  %30 = getelementptr inbounds nuw %struct.tr2_dst, ptr %29, i32 0, i32 0
  %31 = load i32, ptr %30, align 4, !tbaa !12
  %32 = call ptr @tr2_sysenv_display_name(i32 noundef %31)
  %33 = call ptr @__errno_location() #12
  %34 = load i32, ptr %33, align 4, !tbaa !21
  %35 = call ptr @strerror(i32 noundef %34) #10
  call void (ptr, ...) @warning(ptr noundef @.str.6, ptr noundef %32, ptr noundef %35)
  br label %36

36:                                               ; preds = %28, %24
  store i32 0, ptr %7, align 4
  br label %37

37:                                               ; preds = %36, %23
  call void @llvm.lifetime.end.p0(i64 8, ptr %6) #10
  call void @llvm.lifetime.end.p0(i64 4, ptr %5) #10
  %38 = load i32, ptr %7, align 4
  switch i32 %38, label %40 [
    i32 0, label %39
    i32 1, label %39
  ]

39:                                               ; preds = %37, %37
  ret void

40:                                               ; preds = %37
  unreachable
}