; Function Attrs: nounwind uwtable
define dso_local void @tr2_dst_write_line(ptr noundef captures(none) %0, ptr noundef %1) local_unnamed_addr #0 {
  %3 = tail call i32 @tr2_dst_get_trace_fd(ptr noundef %0)
  %4 = getelementptr inbounds nuw i8, ptr %1, i64 8
  %5 = load i64, ptr %4, align 8, !tbaa !16
  %.not.i.i = icmp eq i64 %5, 0
  br i1 %.not.i.i, label %strbuf_complete_line.exit, label %6

6:                                                ; preds = %2
  %7 = getelementptr inbounds nuw i8, ptr %1, i64 16
  %8 = load ptr, ptr %7, align 8, !tbaa !11
  %9 = getelementptr i8, ptr %8, i64 %5
  %10 = getelementptr i8, ptr %9, i64 -1
  %11 = load i8, ptr %10, align 1, !tbaa !10
  %.not6.i.i = icmp eq i8 %11, 10
  br i1 %.not6.i.i, label %strbuf_complete_line.exit, label %12

12:                                               ; preds = %6
  %13 = load i64, ptr %1, align 8, !tbaa !17
  %.not.i.i.i.i = icmp eq i64 %13, 0
  %.neg.i.i.i = add i64 %5, 1
  %.not.i.i.i = icmp eq i64 %13, %.neg.i.i.i
  %or.cond.i.i = or i1 %.not.i.i.i.i, %.not.i.i.i
  br i1 %or.cond.i.i, label %strbuf_avail.exit.thread.i.i.i, label %strbuf_addch.exit.i.i

strbuf_avail.exit.thread.i.i.i:                   ; preds = %12
  tail call void @strbuf_grow(ptr noundef nonnull %1, i64 noundef 1) #13
  %.pre.i.i.i = load i64, ptr %4, align 8, !tbaa !16
  %.pre7.i.i.i = add i64 %.pre.i.i.i, 1
  %.pre.i.i = load ptr, ptr %7, align 8, !tbaa !11
  br label %strbuf_addch.exit.i.i

strbuf_addch.exit.i.i:                            ; preds = %strbuf_avail.exit.thread.i.i.i, %12
  %14 = phi ptr [ %.pre.i.i, %strbuf_avail.exit.thread.i.i.i ], [ %8, %12 ]
  %.pre-phi.i.i.i = phi i64 [ %.pre7.i.i.i, %strbuf_avail.exit.thread.i.i.i ], [ %.neg.i.i.i, %12 ]
  %15 = phi i64 [ %.pre.i.i.i, %strbuf_avail.exit.thread.i.i.i ], [ %5, %12 ]
  store i64 %.pre-phi.i.i.i, ptr %4, align 8, !tbaa !16
  %16 = getelementptr inbounds nuw i8, ptr %14, i64 %15
  store i8 10, ptr %16, align 1, !tbaa !10
  %17 = load ptr, ptr %7, align 8, !tbaa !11
  %18 = load i64, ptr %4, align 8, !tbaa !16
  %19 = getelementptr inbounds nuw i8, ptr %17, i64 %18
  store i8 0, ptr %19, align 1, !tbaa !10
  br label %strbuf_complete_line.exit

strbuf_complete_line.exit:                        ; preds = %2, %6, %strbuf_addch.exit.i.i
  %20 = tail call i32 @sigchain_push(i32 noundef 13, ptr noundef nonnull inttoptr (i64 1 to ptr)) #13
  %21 = getelementptr inbounds nuw i8, ptr %1, i64 16
  %22 = load ptr, ptr %21, align 8, !tbaa !11
  %23 = load i64, ptr %4, align 8, !tbaa !16
  %24 = tail call i64 @write(i32 noundef %3, ptr noundef %22, i64 noundef %23) #13
  %25 = tail call i32 @sigchain_pop(i32 noundef 13) #13
  %26 = icmp sgt i64 %24, -1
  br i1 %26, label %58, label %27

27:                                               ; preds = %strbuf_complete_line.exit
  %28 = getelementptr inbounds nuw i8, ptr %0, i64 8
  %29 = load i8, ptr %28, align 4
  %30 = and i8 %29, 2
  %.not.i = icmp eq i8 %30, 0
  br i1 %.not.i, label %tr2_dst_trace_disable.exit, label %31

31:                                               ; preds = %27
  %32 = getelementptr inbounds nuw i8, ptr %0, i64 4
  %33 = load i32, ptr %32, align 4, !tbaa !4
  %34 = tail call i32 @close(i32 noundef %33) #13
  %.pre.i = load i8, ptr %28, align 4
  br label %tr2_dst_trace_disable.exit

tr2_dst_trace_disable.exit:                       ; preds = %27, %31
  %35 = phi i8 [ %.pre.i, %31 ], [ %29, %27 ]
  %36 = getelementptr inbounds nuw i8, ptr %0, i64 4
  store i32 0, ptr %36, align 4, !tbaa !4
  %37 = and i8 %35, -4
  %38 = or disjoint i8 %37, 1
  store i8 %38, ptr %28, align 4
  %39 = load i32, ptr @tr2_dst_want_warning.tr2env_dst_debug, align 4, !tbaa !18
  %40 = icmp eq i32 %39, -1
  br i1 %40, label %41, label %tr2_dst_want_warning.exit

41:                                               ; preds = %tr2_dst_trace_disable.exit
  %42 = tail call ptr @tr2_sysenv_get(i32 noundef 2) #13
  %.not.i7 = icmp eq ptr %42, null
  br i1 %.not.i7, label %50, label %43

43:                                               ; preds = %41
  %44 = load i8, ptr %42, align 1, !tbaa !10
  %.not3.i = icmp eq i8 %44, 0
  br i1 %.not3.i, label %50, label %45

45:                                               ; preds = %43
  %46 = tail call i64 @strtol(ptr noundef nonnull captures(none) %42, ptr noundef null, i32 noundef 10) #13
  %47 = trunc i64 %46 to i32
  %48 = icmp sgt i32 %47, 0
  %49 = zext i1 %48 to i32
  br label %50

50:                                               ; preds = %45, %43, %41
  %storemerge.i = phi i32 [ %49, %45 ], [ 0, %43 ], [ 0, %41 ]
  store i32 %storemerge.i, ptr @tr2_dst_want_warning.tr2env_dst_debug, align 4, !tbaa !18
  br label %tr2_dst_want_warning.exit

tr2_dst_want_warning.exit:                        ; preds = %tr2_dst_trace_disable.exit, %50
  %51 = phi i32 [ %storemerge.i, %50 ], [ %39, %tr2_dst_trace_disable.exit ]
  %.not = icmp eq i32 %51, 0
  br i1 %.not, label %58, label %52

52:                                               ; preds = %tr2_dst_want_warning.exit
  %53 = load i32, ptr %0, align 4, !tbaa !9
  %54 = tail call ptr @tr2_sysenv_display_name(i32 noundef %53) #13
  %55 = tail call ptr @__errno_location() #16
  %56 = load i32, ptr %55, align 4, !tbaa !18
  %57 = tail call ptr @strerror(i32 noundef %56) #13
  tail call void (ptr, ...) @warning(ptr noundef nonnull @.str.6, ptr noundef %54, ptr noundef %57) #13
  br label %58

58:                                               ; preds = %tr2_dst_want_warning.exit, %52, %strbuf_complete_line.exit
  ret void
}